; Function Attrs: mustprogress nofree norecurse nosync nounwind willreturn memory(argmem: readwrite) uwtable
define void @_ZN2cv4gapi3wip3gst15GStreamerSourceC2ESt10unique_ptrINS3_4PrivESt14default_deleteIS5_EE(ptr noundef nonnull writeonly align 8 captures(none) dereferenceable(32) initializes((0, 32)) %0, ptr noundef captures(none) %1) unnamed_addr #14 align 2 {
  %3 = getelementptr inbounds nuw i8, ptr %0, i64 8
  tail call void @llvm.memset.p0.i64(ptr noundef nonnull align 8 dereferenceable(16) %3, i8 0, i64 16, i1 false)
  store ptr getelementptr inbounds nuw inrange(-16, 40) (i8, ptr @_ZTVN2cv4gapi3wip3gst15GStreamerSourceE, i64 16), ptr %0, align 8, !tbaa !3
  %4 = getelementptr inbounds nuw i8, ptr %0, i64 24
  %5 = load i64, ptr %1, align 8, !tbaa !145
  store i64 %5, ptr %4, align 8, !tbaa !145
  store ptr null, ptr %1, align 8, !tbaa !145
  ret void
}